target datalayout = "e-m:e-p270:32:32-p271:32:32-p272:64:64-i64:64-i128:128-f80:128-n8:16:32:64-S128"
target triple = "x86_64-pc-linux-gnu"

@.str.76 = private unnamed_addr constant [26 x i8] c"Context association lists\00", align 1
@hf_vrt_context_assoc_lists_src_size = internal global i32 0, align 4
@hf_vrt_context_assoc_lists_sys_size = internal global i32 0, align 4
@hf_vrt_context_assoc_lists_vec_size = internal global i32 0, align 4
@hf_vrt_context_assoc_lists_a = internal global i32 0, align 4
@hf_vrt_context_assoc_lists_asy_size = internal global i32 0, align 4
@hf_vrt_context_assoc_lists_src_data = internal global i32 0, align 4
@hf_vrt_context_assoc_lists_sys_data = internal global i32 0, align 4
@hf_vrt_context_assoc_lists_vec_data = internal global i32 0, align 4
@hf_vrt_context_assoc_lists_asy_data = internal global i32 0, align 4
@hf_vrt_context_assoc_lists_asy_tag_data = internal global i32 0, align 4

; Function Attrs: null_pointer_is_valid sspstrong uwtable
define internal i32 @dissect_context_assoc_lists(ptr noundef %0, ptr noundef %1, i32 noundef %2) #0 {
  %4 = alloca ptr, align 8
  %5 = alloca ptr, align 8
  %6 = alloca i32, align 4
  %7 = alloca i32, align 4
  %8 = alloca i32, align 4
  %9 = alloca i32, align 4
  %10 = alloca i32, align 4
  %11 = alloca i32, align 4
  %12 = alloca i8, align 1
  %13 = alloca i32, align 4
  %14 = alloca i32, align 4
  %15 = alloca ptr, align 8
  store ptr %0, ptr %4, align 8
  store ptr %1, ptr %5, align 8
  store i32 %2, ptr %6, align 4
  call void @llvm.lifetime.start.p0(i64 4, ptr %7) #7
  %16 = load ptr, ptr %5, align 8
  %17 = load i32, ptr %6, align 4
  %18 = call i32 @tvb_get_ntohl(ptr noundef %16, i32 noundef %17)
  store i32 %18, ptr %7, align 4
  call void @llvm.lifetime.start.p0(i64 4, ptr %8) #7
  %19 = load i32, ptr %7, align 4
  %20 = lshr i32 %19, 16
  %21 = and i32 %20, 511
  store i32 %21, ptr %8, align 4
  call void @llvm.lifetime.start.p0(i64 4, ptr %9) #7
  %22 = load i32, ptr %7, align 4
  %23 = and i32 %22, 511
  store i32 %23, ptr %9, align 4
  call void @llvm.lifetime.start.p0(i64 4, ptr %10) #7
  %24 = load ptr, ptr %5, align 8
  %25 = load i32, ptr %6, align 4
  %26 = add i32 %25, 4
  %27 = call i32 @tvb_get_ntohl(ptr noundef %24, i32 noundef %26)
  store i32 %27, ptr %10, align 4
  call void @llvm.lifetime.start.p0(i64 4, ptr %11) #7
  %28 = load i32, ptr %10, align 4
  %29 = lshr i32 %28, 16
  store i32 %29, ptr %11, align 4
  call void @llvm.lifetime.start.p0(i64 1, ptr %12) #7
  %30 = load i32, ptr %10, align 4
  %31 = and i32 %30, 32768
  %32 = icmp ne i32 %31, 0
  %33 = zext i1 %32 to i8
  store i8 %33, ptr %12, align 1
  call void @llvm.lifetime.start.p0(i64 4, ptr %13) #7
  %34 = load i32, ptr %10, align 4
  %35 = and i32 %34, 32767
  store i32 %35, ptr %13, align 4
  call void @llvm.lifetime.start.p0(i64 4, ptr %14) #7
  %36 = load i32, ptr %8, align 4
  %37 = load i32, ptr %9, align 4
  %38 = add i32 %36, %37
  %39 = load i32, ptr %11, align 4
  %40 = add i32 %38, %39
  %41 = load i32, ptr %13, align 4
  %42 = add i32 %40, %41
  %43 = load i8, ptr %12, align 1, !range !6, !noundef !7
  %44 = trunc i8 %43 to i1
  br i1 %44, label %45, label %47

45:                                               ; preds = %3
  %46 = load i32, ptr %13, align 4
  br label %48

47:                                               ; preds = %3
  br label %48

48:                                               ; preds = %47, %45
  %49 = phi i32 [ %46, %45 ], [ 0, %47 ]
  %50 = add i32 %42, %49
  store i32 %50, ptr %14, align 4
  call void @llvm.lifetime.start.p0(i64 8, ptr %15) #7
  %51 = load ptr, ptr %4, align 8
  %52 = load ptr, ptr %5, align 8
  %53 = load i32, ptr %6, align 4
  %54 = load i32, ptr %14, align 4
  %55 = mul i32 %54, 4
  %56 = add i32 8, %55
  %57 = call ptr @proto_tree_add_subtree(ptr noundef %51, ptr noundef %52, i32 noundef %53, i32 noundef %56, i32 noundef 17, ptr noundef null, ptr noundef @.str.76)
  store ptr %57, ptr %15, align 8
  %58 = load ptr, ptr %15, align 8
  %59 = load i32, ptr @hf_vrt_context_assoc_lists_src_size, align 4
  %60 = load ptr, ptr %5, align 8
  %61 = load i32, ptr %6, align 4
  %62 = call ptr @proto_tree_add_item(ptr noundef %58, i32 noundef %59, ptr noundef %60, i32 noundef %61, i32 noundef 2, i32 noundef 0)
  %63 = load ptr, ptr %15, align 8
  %64 = load i32, ptr @hf_vrt_context_assoc_lists_sys_size, align 4
  %65 = load ptr, ptr %5, align 8
  %66 = load i32, ptr %6, align 4
  %67 = add i32 %66, 2
  %68 = call ptr @proto_tree_add_item(ptr noundef %63, i32 noundef %64, ptr noundef %65, i32 noundef %67, i32 noundef 2, i32 noundef 0)
  %69 = load ptr, ptr %15, align 8
  %70 = load i32, ptr @hf_vrt_context_assoc_lists_vec_size, align 4
  %71 = load ptr, ptr %5, align 8
  %72 = load i32, ptr %6, align 4
  %73 = add i32 %72, 4
  %74 = call ptr @proto_tree_add_item(ptr noundef %69, i32 noundef %70, ptr noundef %71, i32 noundef %73, i32 noundef 2, i32 noundef 0)
  %75 = load ptr, ptr %15, align 8
  %76 = load i32, ptr @hf_vrt_context_assoc_lists_a, align 4
  %77 = load ptr, ptr %5, align 8
  %78 = load i32, ptr %6, align 4
  %79 = add i32 %78, 6
  %80 = call ptr @proto_tree_add_item(ptr noundef %75, i32 noundef %76, ptr noundef %77, i32 noundef %79, i32 noundef 1, i32 noundef 0)
  %81 = load ptr, ptr %15, align 8
  %82 = load i32, ptr @hf_vrt_context_assoc_lists_asy_size, align 4
  %83 = load ptr, ptr %5, align 8
  %84 = load i32, ptr %6, align 4
  %85 = add i32 %84, 6
  %86 = call ptr @proto_tree_add_item(ptr noundef %81, i32 noundef %82, ptr noundef %83, i32 noundef %85, i32 noundef 2, i32 noundef 0)
  %87 = load i32, ptr %6, align 4
  %88 = add i32 %87, 8
  store i32 %88, ptr %6, align 4
  %89 = load i32, ptr %8, align 4
  %90 = icmp ugt i32 %89, 0
  br i1 %90, label %91, label %103

91:                                               ; preds = %48
  %92 = load ptr, ptr %15, align 8
  %93 = load i32, ptr @hf_vrt_context_assoc_lists_src_data, align 4
  %94 = load ptr, ptr %5, align 8
  %95 = load i32, ptr %6, align 4
  %96 = load i32, ptr %8, align 4
  %97 = mul i32 %96, 4
  %98 = call ptr @proto_tree_add_item(ptr noundef %92, i32 noundef %93, ptr noundef %94, i32 noundef %95, i32 noundef %97, i32 noundef 0)
  %99 = load i32, ptr %8, align 4
  %100 = mul i32 %99, 4
  %101 = load i32, ptr %6, align 4
  %102 = add i32 %101, %100
  store i32 %102, ptr %6, align 4
  br label %103

103:                                              ; preds = %91, %48
  %104 = load i32, ptr %9, align 4
  %105 = icmp ugt i32 %104, 0
  br i1 %105, label %106, label %118

106:                                              ; preds = %103
  %107 = load ptr, ptr %15, align 8
  %108 = load i32, ptr @hf_vrt_context_assoc_lists_sys_data, align 4
  %109 = load ptr, ptr %5, align 8
  %110 = load i32, ptr %6, align 4
  %111 = load i32, ptr %9, align 4
  %112 = mul i32 %111, 4
  %113 = call ptr @proto_tree_add_item(ptr noundef %107, i32 noundef %108, ptr noundef %109, i32 noundef %110, i32 noundef %112, i32 noundef 0)
  %114 = load i32, ptr %9, align 4
  %115 = mul i32 %114, 4
  %116 = load i32, ptr %6, align 4
  %117 = add i32 %116, %115
  store i32 %117, ptr %6, align 4
  br label %118

118:                                              ; preds = %106, %103
  %119 = load i32, ptr %11, align 4
  %120 = icmp ugt i32 %119, 0
  br i1 %120, label %121, label %133

121:                                              ; preds = %118
  %122 = load ptr, ptr %15, align 8
  %123 = load i32, ptr @hf_vrt_context_assoc_lists_vec_data, align 4
  %124 = load ptr, ptr %5, align 8
  %125 = load i32, ptr %6, align 4
  %126 = load i32, ptr %11, align 4
  %127 = mul i32 %126, 4
  %128 = call ptr @proto_tree_add_item(ptr noundef %122, i32 noundef %123, ptr noundef %124, i32 noundef %125, i32 noundef %127, i32 noundef 0)
  %129 = load i32, ptr %11, align 4
  %130 = mul i32 %129, 4
  %131 = load i32, ptr %6, align 4
  %132 = add i32 %131, %130
  store i32 %132, ptr %6, align 4
  br label %133

133:                                              ; preds = %121, %118
  %134 = load i32, ptr %13, align 4
  %135 = icmp ugt i32 %134, 0
  br i1 %135, label %136, label %159

136:                                              ; preds = %133
  %137 = load ptr, ptr %15, align 8
  %138 = load i32, ptr @hf_vrt_context_assoc_lists_asy_data, align 4
  %139 = load ptr, ptr %5, align 8
  %140 = load i32, ptr %6, align 4
  %141 = load i32, ptr %13, align 4
  %142 = mul i32 %141, 4
  %143 = call ptr @proto_tree_add_item(ptr noundef %137, i32 noundef %138, ptr noundef %139, i32 noundef %140, i32 noundef %142, i32 noundef 0)
  %144 = load i32, ptr %13, align 4
  %145 = mul i32 %144, 4
  %146 = load i32, ptr %6, align 4
  %147 = add i32 %146, %145
  store i32 %147, ptr %6, align 4
  %148 = load i8, ptr %12, align 1, !range !6, !noundef !7
  %149 = trunc i8 %148 to i1
  br i1 %149, label %150, label %158

150:                                              ; preds = %136
  %151 = load ptr, ptr %15, align 8
  %152 = load i32, ptr @hf_vrt_context_assoc_lists_asy_tag_data, align 4
  %153 = load ptr, ptr %5, align 8
  %154 = load i32, ptr %6, align 4
  %155 = load i32, ptr %13, align 4
  %156 = mul i32 %155, 4
  %157 = call ptr @proto_tree_add_item(ptr noundef %151, i32 noundef %152, ptr noundef %153, i32 noundef %154, i32 noundef %156, i32 noundef 0)
  br label %158

158:                                              ; preds = %150, %136
  br label %159

159:                                              ; preds = %158, %133
  %160 = load i32, ptr %14, align 4
  %161 = mul i32 %160, 4
  call void @llvm.lifetime.end.p0(i64 8, ptr %15) #7
  call void @llvm.lifetime.end.p0(i64 4, ptr %14) #7
  call void @llvm.lifetime.end.p0(i64 4, ptr %13) #7
  call void @llvm.lifetime.end.p0(i64 1, ptr %12) #7
  call void @llvm.lifetime.end.p0(i64 4, ptr %11) #7
  call void @llvm.lifetime.end.p0(i64 4, ptr %10) #7
  call void @llvm.lifetime.end.p0(i64 4, ptr %9) #7
  call void @llvm.lifetime.end.p0(i64 4, ptr %8) #7
  call void @llvm.lifetime.end.p0(i64 4, ptr %7) #7
  ret i32 %161
}