; Function Attrs: null_pointer_is_valid sspstrong uwtable
define internal range(i32 0, 528365) i32 @dissect_context_assoc_lists(ptr noundef %0, ptr noundef %1, i32 noundef %2) #0 {
  %4 = tail call i32 @tvb_get_ntohl(ptr noundef %1, i32 noundef %2)
  %5 = lshr i32 %4, 16
  %6 = and i32 %5, 511
  %7 = and i32 %4, 511
  %8 = add i32 %2, 4
  %9 = tail call i32 @tvb_get_ntohl(ptr noundef %1, i32 noundef %8)
  %10 = lshr i32 %9, 16
  %11 = and i32 %9, 32768
  %.not = icmp eq i32 %11, 0
  %12 = and i32 %9, 32767
  %13 = add nuw nsw i32 %6, %7
  %14 = add nuw nsw i32 %13, %10
  %15 = add nuw nsw i32 %14, %12
  %16 = select i1 %.not, i32 0, i32 %12
  %17 = add nuw nsw i32 %15, %16
  %18 = shl nuw nsw i32 %17, 2
  %19 = add nuw nsw i32 %18, 8
  %20 = tail call ptr @proto_tree_add_subtree(ptr noundef %0, ptr noundef %1, i32 noundef %2, i32 noundef %19, i32 noundef 17, ptr noundef null, ptr noundef nonnull @.str.76)
  %21 = load i32, ptr @hf_vrt_context_assoc_lists_src_size, align 4
  %22 = tail call ptr @proto_tree_add_item(ptr noundef %20, i32 noundef %21, ptr noundef %1, i32 noundef %2, i32 noundef 2, i32 noundef 0)
  %23 = load i32, ptr @hf_vrt_context_assoc_lists_sys_size, align 4
  %24 = add i32 %2, 2
  %25 = tail call ptr @proto_tree_add_item(ptr noundef %20, i32 noundef %23, ptr noundef %1, i32 noundef %24, i32 noundef 2, i32 noundef 0)
  %26 = load i32, ptr @hf_vrt_context_assoc_lists_vec_size, align 4
  %27 = tail call ptr @proto_tree_add_item(ptr noundef %20, i32 noundef %26, ptr noundef %1, i32 noundef %8, i32 noundef 2, i32 noundef 0)
  %28 = load i32, ptr @hf_vrt_context_assoc_lists_a, align 4
  %29 = add i32 %2, 6
  %30 = tail call ptr @proto_tree_add_item(ptr noundef %20, i32 noundef %28, ptr noundef %1, i32 noundef %29, i32 noundef 1, i32 noundef 0)
  %31 = load i32, ptr @hf_vrt_context_assoc_lists_asy_size, align 4
  %32 = tail call ptr @proto_tree_add_item(ptr noundef %20, i32 noundef %31, ptr noundef %1, i32 noundef %29, i32 noundef 2, i32 noundef 0)
  %33 = add i32 %2, 8
  %.not72 = icmp eq i32 %6, 0
  br i1 %.not72, label %39, label %34

34:                                               ; preds = %3
  %35 = load i32, ptr @hf_vrt_context_assoc_lists_src_data, align 4
  %36 = shl nuw nsw i32 %6, 2
  %37 = tail call ptr @proto_tree_add_item(ptr noundef %20, i32 noundef %35, ptr noundef %1, i32 noundef %33, i32 noundef %36, i32 noundef 0)
  %38 = add i32 %36, %33
  br label %39

39:                                               ; preds = %34, %3
  %.0 = phi i32 [ %38, %34 ], [ %33, %3 ]
  %.not73 = icmp eq i32 %7, 0
  br i1 %.not73, label %45, label %40

40:                                               ; preds = %39
  %41 = load i32, ptr @hf_vrt_context_assoc_lists_sys_data, align 4
  %42 = shl nuw nsw i32 %7, 2
  %43 = tail call ptr @proto_tree_add_item(ptr noundef %20, i32 noundef %41, ptr noundef %1, i32 noundef %.0, i32 noundef %42, i32 noundef 0)
  %44 = add i32 %.0, %42
  br label %45

45:                                               ; preds = %40, %39
  %.1 = phi i32 [ %44, %40 ], [ %.0, %39 ]
  %.not74 = icmp ult i32 %9, 65536
  br i1 %.not74, label %51, label %46

46:                                               ; preds = %45
  %47 = load i32, ptr @hf_vrt_context_assoc_lists_vec_data, align 4
  %48 = shl nuw nsw i32 %10, 2
  %49 = tail call ptr @proto_tree_add_item(ptr noundef %20, i32 noundef %47, ptr noundef %1, i32 noundef %.1, i32 noundef %48, i32 noundef 0)
  %50 = add i32 %.1, %48
  br label %51

51:                                               ; preds = %46, %45
  %.2 = phi i32 [ %50, %46 ], [ %.1, %45 ]
  %.not75 = icmp eq i32 %12, 0
  br i1 %.not75, label %60, label %52

52:                                               ; preds = %51
  %53 = load i32, ptr @hf_vrt_context_assoc_lists_asy_data, align 4
  %54 = shl nuw nsw i32 %12, 2
  %55 = tail call ptr @proto_tree_add_item(ptr noundef %20, i32 noundef %53, ptr noundef %1, i32 noundef %.2, i32 noundef %54, i32 noundef 0)
  br i1 %.not, label %60, label %56

56:                                               ; preds = %52
  %57 = add i32 %.2, %54
  %58 = load i32, ptr @hf_vrt_context_assoc_lists_asy_tag_data, align 4
  %59 = tail call ptr @proto_tree_add_item(ptr noundef %20, i32 noundef %58, ptr noundef %1, i32 noundef %57, i32 noundef %54, i32 noundef 0)
  br label %60

60:                                               ; preds = %52, %56, %51
  ret i32 %18
}